; ModuleID = '1/405.cpp'
source_filename = "1/405.cpp"
target datalayout = "e-m:e-p270:32:32-p271:32:32-p272:64:64-i64:64-f80:128-n8:16:32:64-S128"
target triple = "x86_64-pc-linux-gnu"

%"class.std::ios_base::Init" = type { i8 }
%"class.std::basic_istream" = type { i32 (...)**, i64, %"class.std::basic_ios" }
%"class.std::basic_ios" = type { %"class.std::ios_base", %"class.std::basic_ostream"*, i8, i8, %"class.std::basic_streambuf"*, %"class.std::ctype"*, %"class.std::num_put"*, %"class.std::num_get"* }
%"class.std::ios_base" = type { i32 (...)**, i64, i64, i32, i32, i32, %"struct.std::ios_base::_Callback_list"*, %"struct.std::ios_base::_Words", [8 x %"struct.std::ios_base::_Words"], i32, %"struct.std::ios_base::_Words"*, %"class.std::locale" }
%"struct.std::ios_base::_Callback_list" = type { %"struct.std::ios_base::_Callback_list"*, void (i32, %"class.std::ios_base"*, i32)*, i32, i32 }
%"struct.std::ios_base::_Words" = type { i8*, i64 }
%"class.std::locale" = type { %"class.std::locale::_Impl"* }
%"class.std::locale::_Impl" = type { i32, %"class.std::locale::facet"**, i64, %"class.std::locale::facet"**, i8** }
%"class.std::locale::facet" = type <{ i32 (...)**, i32, [4 x i8] }>
%"class.std::basic_ostream" = type { i32 (...)**, %"class.std::basic_ios" }
%"class.std::basic_streambuf" = type { i32 (...)**, i8*, i8*, i8*, i8*, i8*, i8*, %"class.std::locale" }
%"class.std::ctype" = type <{ %"class.std::locale::facet.base", [4 x i8], %struct.__locale_struct*, i8, [7 x i8], i32*, i32*, i16*, i8, [256 x i8], [256 x i8], i8, [6 x i8] }>
%"class.std::locale::facet.base" = type <{ i32 (...)**, i32 }>
%struct.__locale_struct = type { [13 x %struct.__locale_data*], i16*, i32*, i32*, [13 x i8*] }
%struct.__locale_data = type opaque
%"class.std::num_put" = type { %"class.std::locale::facet.base", [4 x i8] }
%"class.std::num_get" = type { %"class.std::locale::facet.base", [4 x i8] }

@_ZStL8__ioinit = internal global %"class.std::ios_base::Init" zeroinitializer, align 1
@__dso_handle = external hidden global i8
@_ZSt3cin = external dso_local global %"class.std::basic_istream", align 8
@_ZSt4cout = external dso_local global %"class.std::basic_ostream", align 8
@llvm.global_ctors = appending global [1 x { i32, void ()*, i8* }] [{ i32, void ()*, i8* } { i32 65535, void ()* @_GLOBAL__sub_I_405.cpp, i8* null }]

; Function Attrs: noinline uwtable
define internal void @__cxx_global_var_init() #0 section ".text.startup" {
  call void @_ZNSt8ios_base4InitC1Ev(%"class.std::ios_base::Init"* @_ZStL8__ioinit)
  %1 = call i32 @__cxa_atexit(void (i8*)* bitcast (void (%"class.std::ios_base::Init"*)* @_ZNSt8ios_base4InitD1Ev to void (i8*)*), i8* getelementptr inbounds (%"class.std::ios_base::Init", %"class.std::ios_base::Init"* @_ZStL8__ioinit, i32 0, i32 0), i8* @__dso_handle) #3
  ret void
}

declare dso_local void @_ZNSt8ios_base4InitC1Ev(%"class.std::ios_base::Init"*) unnamed_addr #1

; Function Attrs: nounwind
declare dso_local void @_ZNSt8ios_base4InitD1Ev(%"class.std::ios_base::Init"*) unnamed_addr #2

; Function Attrs: nounwind
declare dso_local i32 @__cxa_atexit(void (i8*)*, i8*, i8*) #3

; Function Attrs: noinline norecurse uwtable
define dso_local i32 @main() #4 {
  %1 = alloca i32, align 4
  %2 = alloca i32, align 4
  %3 = alloca i32, align 4
  %4 = alloca i32, align 4
  %5 = alloca [100 x i32], align 16
  store i32 0, i32* %1, align 4
  %6 = call dereferenceable(280) %"class.std::basic_istream"* @_ZNSirsERi(%"class.std::basic_istream"* @_ZSt3cin, i32* dereferenceable(4) %2)
  store i32 0, i32* %3, align 4
  br label %7

7:                                                ; preds = %18, %0
  %8 = load i32, i32* %3, align 4
  %9 = load i32, i32* %2, align 4
  %10 = icmp slt i32 %8, %9
  br i1 %10, label %11, label %21

11:                                               ; preds = %7
  %12 = call dereferenceable(280) %"class.std::basic_istream"* @_ZNSirsERi(%"class.std::basic_istream"* @_ZSt3cin, i32* dereferenceable(4) %4)
  %13 = load i32, i32* %4, align 4
  %14 = call i32 @_Z1fii(i32 %13, i32 2)
  %15 = load i32, i32* %3, align 4
  %16 = sext i32 %15 to i64
  %17 = getelementptr inbounds [100 x i32], [100 x i32]* %5, i64 0, i64 %16
  store i32 %14, i32* %17, align 4
  br label %18

18:                                               ; preds = %11
  %19 = load i32, i32* %3, align 4
  %20 = add nsw i32 %19, 1
  store i32 %20, i32* %3, align 4
  br label %7

21:                                               ; preds = %7
  store i32 0, i32* %3, align 4
  br label %22

22:                                               ; preds = %33, %21
  %23 = load i32, i32* %3, align 4
  %24 = load i32, i32* %2, align 4
  %25 = icmp slt i32 %23, %24
  br i1 %25, label %26, label %36

26:                                               ; preds = %22
  %27 = load i32, i32* %3, align 4
  %28 = sext i32 %27 to i64
  %29 = getelementptr inbounds [100 x i32], [100 x i32]* %5, i64 0, i64 %28
  %30 = load i32, i32* %29, align 4
  %31 = call dereferenceable(272) %"class.std::basic_ostream"* @_ZNSolsEi(%"class.std::basic_ostream"* @_ZSt4cout, i32 %30)
  %32 = call dereferenceable(272) %"class.std::basic_ostream"* @_ZNSolsEPFRSoS_E(%"class.std::basic_ostream"* %31, %"class.std::basic_ostream"* (%"class.std::basic_ostream"*)* @_ZSt4endlIcSt11char_traitsIcEERSt13basic_ostreamIT_T0_ES6_)
  br label %33

33:                                               ; preds = %26
  %34 = load i32, i32* %3, align 4
  %35 = add nsw i32 %34, 1
  store i32 %35, i32* %3, align 4
  br label %22

36:                                               ; preds = %22
  ret i32 0
}

declare dso_local dereferenceable(280) %"class.std::basic_istream"* @_ZNSirsERi(%"class.std::basic_istream"*, i32* dereferenceable(4)) #1

; Function Attrs: noinline uwtable
define dso_local i32 @_Z1fii(i32 %0, i32 %1) #0 {
  %3 = alloca i32, align 4
  %4 = alloca i32, align 4
  %5 = alloca i32, align 4
  %6 = alloca i32, align 4
  %7 = alloca i32, align 4
  store i32 %0, i32* %4, align 4
  store i32 %1, i32* %5, align 4
  store i32 1, i32* %6, align 4
  %8 = load i32, i32* %4, align 4
  %9 = load i32, i32* %5, align 4
  %10 = icmp slt i32 %8, %9
  br i1 %10, label %11, label %12

11:                                               ; preds = %2
  store i32 0, i32* %3, align 4
  br label %37

12:                                               ; preds = %2
  %13 = load i32, i32* %5, align 4
  store i32 %13, i32* %7, align 4
  br label %14

14:                                               ; preds = %32, %12
  %15 = load i32, i32* %7, align 4
  %16 = load i32, i32* %4, align 4
  %17 = icmp slt i32 %15, %16
  br i1 %17, label %18, label %35

18:                                               ; preds = %14
  %19 = load i32, i32* %4, align 4
  %20 = load i32, i32* %7, align 4
  %21 = srem i32 %19, %20
  %22 = icmp eq i32 %21, 0
  br i1 %22, label %23, label %31

23:                                               ; preds = %18
  %24 = load i32, i32* %4, align 4
  %25 = load i32, i32* %7, align 4
  %26 = sdiv i32 %24, %25
  %27 = load i32, i32* %7, align 4
  %28 = call i32 @_Z1fii(i32 %26, i32 %27)
  %29 = load i32, i32* %6, align 4
  %30 = add nsw i32 %29, %28
  store i32 %30, i32* %6, align 4
  br label %31

31:                                               ; preds = %23, %18
  br label %32

32:                                               ; preds = %31
  %33 = load i32, i32* %7, align 4
  %34 = add nsw i32 %33, 1
  store i32 %34, i32* %7, align 4
  br label %14

35:                                               ; preds = %14
  %36 = load i32, i32* %6, align 4
  store i32 %36, i32* %3, align 4
  br label %37

37:                                               ; preds = %35, %11
  %38 = load i32, i32* %3, align 4
  ret i32 %38
}

declare dso_local dereferenceable(272) %"class.std::basic_ostream"* @_ZNSolsEi(%"class.std::basic_ostream"*, i32) #1

declare dso_local dereferenceable(272) %"class.std::basic_ostream"* @_ZNSolsEPFRSoS_E(%"class.std::basic_ostream"*, %"class.std::basic_ostream"* (%"class.std::basic_ostream"*)*) #1

declare dso_local dereferenceable(272) %"class.std::basic_ostream"* @_ZSt4endlIcSt11char_traitsIcEERSt13basic_ostreamIT_T0_ES6_(%"class.std::basic_ostream"* dereferenceable(272)) #1

; Function Attrs: noinline uwtable
define internal void @_GLOBAL__sub_I_405.cpp() #0 section ".text.startup" {
  call void @__cxx_global_var_init()
  ret void
}


!llvm.module.flags = !{!0}
!llvm.ident = !{!1}

!0 = !{i32 1, !"wchar_size", i32 4}
!1 = !{!"clang version 10.0.0-4ubuntu1 "}
